; Function Attrs: mustprogress uwtable
define void @_Z42grpc_call_stack_set_pollset_or_pollset_setP15grpc_call_stackP19grpc_polling_entity(ptr noundef %call_stack, ptr noundef %pollent) local_unnamed_addr #6 {
entry:
  %count1 = getelementptr inbounds i8, ptr %call_stack, i64 40
  %0 = load i64, ptr %count1, align 8
  %add.ptr = getelementptr inbounds i8, ptr %call_stack, i64 48
  %cmp6.not = icmp eq i64 %0, 0
  br i1 %cmp6.not, label %for.end, label %for.body

for.body:                                         ; preds = %entry, %for.body
  %i.07 = phi i64 [ %inc, %for.body ], [ 0, %entry ]
  %arrayidx = getelementptr inbounds %struct.grpc_call_element, ptr %add.ptr, i64 %i.07
  %1 = load ptr, ptr %arrayidx, align 8
  %set_pollset_or_pollset_set = getelementptr inbounds i8, ptr %1, i64 48
  %2 = load ptr, ptr %set_pollset_or_pollset_set, align 8
  tail call void %2(ptr noundef nonnull %arrayidx, ptr noundef %pollent)
  %inc = add nuw i64 %i.07, 1
  %exitcond.not = icmp eq i64 %inc, %0
  br i1 %exitcond.not, label %for.end, label %for.body, !llvm.loop !18

for.end:                                          ; preds = %for.body, %entry
  ret void
}